; ModuleID = '6/804.c'
source_filename = "6/804.c"
target datalayout = "e-m:e-p270:32:32-p271:32:32-p272:64:64-i64:64-f80:128-n8:16:32:64-S128"
target triple = "x86_64-pc-linux-gnu"

@.str = private unnamed_addr constant [3 x i8] c"%d\00", align 1
@.str.1 = private unnamed_addr constant [6 x i8] c"%d %d\00", align 1
@.str.2 = private unnamed_addr constant [4 x i8] c"%d\0A\00", align 1

; Function Attrs: noinline nounwind uwtable
define dso_local i32 @main() #0 {
  %1 = alloca i32, align 4
  %2 = alloca i32, align 4
  %3 = alloca i32, align 4
  %4 = alloca i32, align 4
  %5 = alloca i32, align 4
  %6 = alloca i32, align 4
  %7 = alloca i32, align 4
  %8 = alloca i32, align 4
  %9 = alloca i32, align 4
  %10 = alloca i32, align 4
  %11 = alloca [100 x [100 x i32]], align 16
  store i32 0, i32* %1, align 4
  %12 = call i32 (i8*, ...) @__isoc99_scanf(i8* getelementptr inbounds ([3 x i8], [3 x i8]* @.str, i64 0, i64 0), i32* %3)
  store i32 0, i32* %2, align 4
  br label %13

13:                                               ; preds = %118, %0
  %14 = load i32, i32* %2, align 4
  %15 = load i32, i32* %3, align 4
  %16 = icmp slt i32 %14, %15
  br i1 %16, label %17, label %121

17:                                               ; preds = %13
  store i32 0, i32* %10, align 4
  %18 = call i32 (i8*, ...) @__isoc99_scanf(i8* getelementptr inbounds ([6 x i8], [6 x i8]* @.str.1, i64 0, i64 0), i32* %6, i32* %7)
  store i32 0, i32* %4, align 4
  br label %19

19:                                               ; preds = %40, %17
  %20 = load i32, i32* %4, align 4
  %21 = load i32, i32* %6, align 4
  %22 = icmp slt i32 %20, %21
  br i1 %22, label %23, label %43

23:                                               ; preds = %19
  store i32 0, i32* %5, align 4
  br label %24

24:                                               ; preds = %36, %23
  %25 = load i32, i32* %5, align 4
  %26 = load i32, i32* %7, align 4
  %27 = icmp slt i32 %25, %26
  br i1 %27, label %28, label %39

28:                                               ; preds = %24
  %29 = load i32, i32* %4, align 4
  %30 = sext i32 %29 to i64
  %31 = getelementptr inbounds [100 x [100 x i32]], [100 x [100 x i32]]* %11, i64 0, i64 %30
  %32 = load i32, i32* %5, align 4
  %33 = sext i32 %32 to i64
  %34 = getelementptr inbounds [100 x i32], [100 x i32]* %31, i64 0, i64 %33
  %35 = call i32 (i8*, ...) @__isoc99_scanf(i8* getelementptr inbounds ([3 x i8], [3 x i8]* @.str, i64 0, i64 0), i32* %34)
  br label %36

36:                                               ; preds = %28
  %37 = load i32, i32* %5, align 4
  %38 = add nsw i32 %37, 1
  store i32 %38, i32* %5, align 4
  br label %24

39:                                               ; preds = %24
  br label %40

40:                                               ; preds = %39
  %41 = load i32, i32* %4, align 4
  %42 = add nsw i32 %41, 1
  store i32 %42, i32* %4, align 4
  br label %19

43:                                               ; preds = %19
  %44 = load i32, i32* %6, align 4
  %45 = sub nsw i32 %44, 1
  store i32 %45, i32* %8, align 4
  %46 = load i32, i32* %7, align 4
  %47 = sub nsw i32 %46, 1
  store i32 %47, i32* %9, align 4
  store i32 0, i32* %5, align 4
  br label %48

48:                                               ; preds = %60, %43
  %49 = load i32, i32* %5, align 4
  %50 = load i32, i32* %9, align 4
  %51 = icmp slt i32 %49, %50
  br i1 %51, label %52, label %63

52:                                               ; preds = %48
  %53 = load i32, i32* %10, align 4
  %54 = getelementptr inbounds [100 x [100 x i32]], [100 x [100 x i32]]* %11, i64 0, i64 0
  %55 = load i32, i32* %5, align 4
  %56 = sext i32 %55 to i64
  %57 = getelementptr inbounds [100 x i32], [100 x i32]* %54, i64 0, i64 %56
  %58 = load i32, i32* %57, align 4
  %59 = add nsw i32 %53, %58
  store i32 %59, i32* %10, align 4
  br label %60

60:                                               ; preds = %52
  %61 = load i32, i32* %5, align 4
  %62 = add nsw i32 %61, 1
  store i32 %62, i32* %5, align 4
  br label %48

63:                                               ; preds = %48
  store i32 0, i32* %4, align 4
  br label %64

64:                                               ; preds = %78, %63
  %65 = load i32, i32* %4, align 4
  %66 = load i32, i32* %8, align 4
  %67 = icmp slt i32 %65, %66
  br i1 %67, label %68, label %81

68:                                               ; preds = %64
  %69 = load i32, i32* %10, align 4
  %70 = load i32, i32* %4, align 4
  %71 = sext i32 %70 to i64
  %72 = getelementptr inbounds [100 x [100 x i32]], [100 x [100 x i32]]* %11, i64 0, i64 %71
  %73 = load i32, i32* %9, align 4
  %74 = sext i32 %73 to i64
  %75 = getelementptr inbounds [100 x i32], [100 x i32]* %72, i64 0, i64 %74
  %76 = load i32, i32* %75, align 4
  %77 = add nsw i32 %69, %76
  store i32 %77, i32* %10, align 4
  br label %78

78:                                               ; preds = %68
  %79 = load i32, i32* %4, align 4
  %80 = add nsw i32 %79, 1
  store i32 %80, i32* %4, align 4
  br label %64

81:                                               ; preds = %64
  %82 = load i32, i32* %9, align 4
  store i32 %82, i32* %5, align 4
  br label %83

83:                                               ; preds = %96, %81
  %84 = load i32, i32* %5, align 4
  %85 = icmp sgt i32 %84, 0
  br i1 %85, label %86, label %99

86:                                               ; preds = %83
  %87 = load i32, i32* %10, align 4
  %88 = load i32, i32* %8, align 4
  %89 = sext i32 %88 to i64
  %90 = getelementptr inbounds [100 x [100 x i32]], [100 x [100 x i32]]* %11, i64 0, i64 %89
  %91 = load i32, i32* %5, align 4
  %92 = sext i32 %91 to i64
  %93 = getelementptr inbounds [100 x i32], [100 x i32]* %90, i64 0, i64 %92
  %94 = load i32, i32* %93, align 4
  %95 = add nsw i32 %87, %94
  store i32 %95, i32* %10, align 4
  br label %96

96:                                               ; preds = %86
  %97 = load i32, i32* %5, align 4
  %98 = add nsw i32 %97, -1
  store i32 %98, i32* %5, align 4
  br label %83

99:                                               ; preds = %83
  %100 = load i32, i32* %8, align 4
  store i32 %100, i32* %4, align 4
  br label %101

101:                                              ; preds = %112, %99
  %102 = load i32, i32* %4, align 4
  %103 = icmp sgt i32 %102, 0
  br i1 %103, label %104, label %115

104:                                              ; preds = %101
  %105 = load i32, i32* %10, align 4
  %106 = load i32, i32* %4, align 4
  %107 = sext i32 %106 to i64
  %108 = getelementptr inbounds [100 x [100 x i32]], [100 x [100 x i32]]* %11, i64 0, i64 %107
  %109 = getelementptr inbounds [100 x i32], [100 x i32]* %108, i64 0, i64 0
  %110 = load i32, i32* %109, align 16
  %111 = add nsw i32 %105, %110
  store i32 %111, i32* %10, align 4
  br label %112

112:                                              ; preds = %104
  %113 = load i32, i32* %4, align 4
  %114 = add nsw i32 %113, -1
  store i32 %114, i32* %4, align 4
  br label %101

115:                                              ; preds = %101
  %116 = load i32, i32* %10, align 4
  %117 = call i32 (i8*, ...) @printf(i8* getelementptr inbounds ([4 x i8], [4 x i8]* @.str.2, i64 0, i64 0), i32 %116)
  br label %118

118:                                              ; preds = %115
  %119 = load i32, i32* %2, align 4
  %120 = add nsw i32 %119, 1
  store i32 %120, i32* %2, align 4
  br label %13

121:                                              ; preds = %13
  ret i32 0
}

declare dso_local i32 @__isoc99_scanf(i8*, ...) #1

declare dso_local i32 @printf(i8*, ...) #1


!llvm.module.flags = !{!0}
!llvm.ident = !{!1}

!0 = !{i32 1, !"wchar_size", i32 4}
!1 = !{!"clang version 10.0.0-4ubuntu1 "}
